target datalayout = "e-m:e-p270:32:32-p271:32:32-p272:64:64-i64:64-i128:128-f80:128-n8:16:32:64-S128"
target triple = "x86_64-unknown-linux-gnu"

%struct.net_offload = type { %struct.offload_callbacks, i32 }
%struct.offload_callbacks = type { ptr, ptr, ptr }

@rthdr_offload = internal constant %struct.net_offload { %struct.offload_callbacks zeroinitializer, i32 1 }, align 8
@dstopt_offload = internal constant %struct.net_offload { %struct.offload_callbacks zeroinitializer, i32 1 }, align 8
@hbh_offload = internal constant %struct.net_offload { %struct.offload_callbacks zeroinitializer, i32 1 }, align 8

; Function Attrs: cold fn_ret_thunk_extern nounwind null_pointer_is_valid optsize
define dso_local i32 @ipv6_exthdrs_offload_init() local_unnamed_addr #0 section ".init.text" align 16 {
  %1 = tail call i32 @inet6_add_offload(ptr noundef nonnull @rthdr_offload, i8 noundef zeroext 43) #2
  %2 = icmp eq i32 %1, 0
  br i1 %2, label %3, label %9

3:                                                ; preds = %0
  %4 = tail call i32 @inet6_add_offload(ptr noundef nonnull @dstopt_offload, i8 noundef zeroext 60) #2
  %5 = icmp eq i32 %4, 0
  br i1 %5, label %6, label %13

6:                                                ; preds = %3
  %7 = tail call i32 @inet6_add_offload(ptr noundef nonnull @hbh_offload, i8 noundef zeroext 0) #2
  %8 = icmp eq i32 %7, 0
  br i1 %8, label %9, label %11

9:                                                ; preds = %13, %6, %0
  %10 = phi i32 [ %1, %0 ], [ %14, %13 ], [ 0, %6 ]
  ret i32 %10

11:                                               ; preds = %6
  %12 = tail call i32 @inet6_del_offload(ptr noundef nonnull @dstopt_offload, i8 noundef zeroext 60) #2
  br label %13

13:                                               ; preds = %11, %3
  %14 = phi i32 [ %4, %3 ], [ %7, %11 ]
  %15 = tail call i32 @inet6_del_offload(ptr noundef nonnull @rthdr_offload, i8 noundef zeroext 43) #2
  br label %9
}

; Function Attrs: null_pointer_is_valid
declare dso_local i32 @inet6_add_offload(ptr noundef, i8 noundef zeroext) local_unnamed_addr #1

; Function Attrs: null_pointer_is_valid
declare dso_local i32 @inet6_del_offload(ptr noundef, i8 noundef zeroext) local_unnamed_addr #1


!llvm.module.flags = !{!0, !1, !2, !3, !4}

!0 = !{i32 1, !"wchar_size", i32 2}
!1 = !{i32 8, !"cf-protection-branch", i32 1}
!2 = !{i32 4, !"function_return_thunk_extern", i32 1}
!3 = !{i32 4, !"indirect_branch_cs_prefix", i32 1}
!4 = !{i32 4, !"SkipRaxSetup", i32 1}
